; Function Attrs: mustprogress uwtable
define hidden void @_ZNK5osgeo4proj2cs8Meridian12_exportToWKTEPNS0_2io12WKTFormatterE(ptr noundef nonnull align 8 dereferenceable(56) %0, ptr noundef nonnull %1) unnamed_addr #0 align 2 {
  %3 = tail call noundef nonnull align 8 dereferenceable(24) ptr @_ZNK5osgeo4proj6common16IdentifiedObject11identifiersEv(ptr noundef nonnull align 8 dereferenceable(40) %0) #36
  %4 = load ptr, ptr %3, align 8, !tbaa !28
  %5 = getelementptr inbounds nuw i8, ptr %3, i64 8
  %6 = load ptr, ptr %5, align 8, !tbaa !28
  %7 = icmp ne ptr %4, %6
  tail call void @_ZN5osgeo4proj2io12WKTFormatter9startNodeERKNSt7__cxx1112basic_stringIcSt11char_traitsIcESaIcEEEb(ptr noundef nonnull align 8 dereferenceable(8) %1, ptr noundef nonnull align 8 dereferenceable(32) @_ZN5osgeo4proj2io12WKTConstants8MERIDIANB5cxx11E, i1 noundef zeroext %7)
  %8 = getelementptr inbounds nuw i8, ptr %0, i64 48
  %9 = load ptr, ptr %8, align 8, !tbaa !9
  %10 = tail call noundef double @_ZNK5osgeo4proj6common7Measure5valueEv(ptr noundef nonnull align 8 dereferenceable(24) %9) #36
  tail call void @_ZN5osgeo4proj2io12WKTFormatter3addEdi(ptr noundef nonnull align 8 dereferenceable(8) %1, double noundef %10, i32 noundef 15)
  %11 = load ptr, ptr %8, align 8, !tbaa !9
  %12 = tail call noundef nonnull align 8 dereferenceable(24) ptr @_ZNK5osgeo4proj6common7Measure4unitEv(ptr noundef nonnull align 8 dereferenceable(24) %11) #36
  tail call void @_ZNK5osgeo4proj6common13UnitOfMeasure12_exportToWKTEPNS0_2io12WKTFormatterERKNSt7__cxx1112basic_stringIcSt11char_traitsIcESaIcEEE(ptr noundef nonnull align 8 dereferenceable(24) %12, ptr noundef nonnull %1, ptr noundef nonnull align 8 dereferenceable(32) @_ZN5osgeo4proj2io12WKTConstants9ANGLEUNITB5cxx11E)
  %13 = tail call noundef zeroext i1 @_ZNK5osgeo4proj2io12WKTFormatter8outputIdEv(ptr noundef nonnull align 8 dereferenceable(8) %1)
  br i1 %13, label %14, label %15

14:                                               ; preds = %2
  tail call void @_ZNK5osgeo4proj6common16IdentifiedObject8formatIDEPNS0_2io12WKTFormatterE(ptr noundef nonnull align 8 dereferenceable(40) %0, ptr noundef nonnull %1)
  br label %15

15:                                               ; preds = %14, %2
  tail call void @_ZN5osgeo4proj2io12WKTFormatter7endNodeEv(ptr noundef nonnull align 8 dereferenceable(8) %1)
  ret void
}